Certificate:
    Data:
        Version: 3 (0x2)
        Serial Number: 1 (0x1)
    Signature Algorithm: sha256WithRSAEncryption
        Issuer: C=DE, ST=BW, L=Ulm, O=enforge, OU=cloud, CN=enforge CA/name=server/emailAddress=info@enforge.de
        Validity
            Not Before: Nov  7 14:59:56 2019 GMT
            Not After : Nov  4 14:59:56 2029 GMT
        Subject: C=DE, ST=BW, L=Ulm, O=enforge, OU=cloud, CN=server/name=server/emailAddress=info@enforge.de
        Subject Public Key Info:
            Public Key Algorithm: rsaEncryption
                Public-Key: (4096 bit)
                Modulus:
                    00:df:f2:d8:23:26:95:46:14:73:25:9d:0e:40:f4:
                    89:73:f2:0f:b3:1b:d1:ae:29:36:63:39:e6:0b:76:
                    91:79:eb:6d:be:e2:87:d9:e5:6f:12:71:d7:a5:0f:
                    e4:00:ba:01:78:90:fd:98:38:bc:b4:97:59:2d:38:
                    65:c0:49:6b:39:c9:e4:2a:d8:33:f5:60:8a:c6:38:
                    43:45:a9:de:84:74:8c:95:b5:7a:6e:9c:c1:c5:c1:
                    11:15:5f:33:60:47:13:d2:06:c8:50:c7:8f:05:c5:
                    1e:31:54:e5:d5:8c:0f:de:59:4c:4a:f1:88:f6:ef:
                    bb:b8:41:00:78:31:ed:2f:5b:d5:4b:46:6d:f3:94:
                    3b:08:22:4b:f9:06:ec:35:e8:3a:f8:28:a0:a0:76:
                    3b:45:b8:43:e2:0a:af:09:7d:58:14:f8:10:11:5e:
                    b9:62:1f:8e:c6:09:2b:e1:86:45:c8:4f:66:36:29:
                    64:d5:79:7d:99:27:5a:c7:1d:75:8b:d3:9b:56:9e:
                    e2:4b:56:52:78:05:24:3e:ee:8c:7e:83:1c:89:f3:
                    29:2c:1e:c8:01:9d:39:25:86:8a:99:63:58:30:4d:
                    c5:22:69:70:e9:72:c6:d6:6d:1c:78:c2:70:16:c6:
                    d0:0b:30:db:41:e9:9f:05:15:58:e4:41:f6:80:ac:
                    46:27:ba:bb:50:5a:27:e7:07:e3:f9:4f:ac:be:9b:
                    d7:67:e9:74:b9:48:04:44:68:49:54:0a:28:4f:2d:
                    54:8f:78:34:b0:55:bf:dd:b5:31:58:95:5b:51:5b:
                    ed:0c:c2:0c:d6:8e:4f:2f:da:87:6b:36:91:51:ca:
                    85:93:f2:1f:4f:95:a7:62:fb:1b:4a:b8:ac:64:08:
                    5f:84:98:3b:5c:c4:5c:32:82:09:1e:53:63:84:11:
                    bf:7b:1b:a1:f9:d1:bb:46:23:85:e2:e6:e7:40:9b:
                    08:a9:2f:ab:c9:ba:8b:5b:fe:b0:16:1f:67:c7:23:
                    d2:b4:74:94:7d:2e:a1:c1:95:64:7b:b8:a4:52:52:
                    fd:cb:2e:20:0b:e0:6f:1d:4c:59:02:c1:99:eb:b0:
                    b3:35:08:40:1d:bd:20:c9:0d:50:1f:f5:30:71:eb:
                    0b:6b:6b:e7:50:16:b6:b5:d3:c2:ec:7e:6f:b1:80:
                    e1:56:2b:d4:26:6e:0a:4f:93:fa:46:00:b4:17:84:
                    2f:a9:1d:45:31:74:5e:ad:bb:ea:f8:d0:b3:78:78:
                    d9:a4:d6:22:5f:43:ac:fd:30:45:e0:8b:ad:25:19:
                    d7:eb:a8:2a:cb:6d:9a:f6:27:1e:e1:81:34:80:a6:
                    47:9e:c3:44:a3:ca:9d:e1:a9:c4:cd:8a:21:14:18:
                    22:24:f7
                Exponent: 65537 (0x10001)
        X509v3 extensions:
            X509v3 Basic Constraints: 
                CA:FALSE
            Netscape Cert Type: 
                SSL Server
            Netscape Comment: 
                Easy-RSA Generated Server Certificate
            X509v3 Subject Key Identifier: 
                58:4B:22:BC:AF:E7:9C:E6:99:19:72:E2:15:D8:3F:D3:98:D4:B2:2A
            X509v3 Authority Key Identifier: 
                keyid:A6:13:65:7F:EB:62:29:FB:3A:07:A6:1C:71:8D:13:F6:60:39:EF:A0
                DirName:/C=DE/ST=BW/L=Ulm/O=enforge/OU=cloud/CN=enforge CA/name=server/emailAddress=info@enforge.de
                serial:B5:B5:70:CD:29:E3:ED:5B

            X509v3 Extended Key Usage: 
                TLS Web Server Authentication
            X509v3 Key Usage: 
                Digital Signature, Key Encipherment
            X509v3 Subject Alternative Name: 
                DNS:server
    Signature Algorithm: sha256WithRSAEncryption
         7b:0a:b5:8e:c7:29:d0:86:b7:af:c0:64:4d:79:e1:63:90:dc:
         a9:2c:97:57:35:fb:fe:10:91:2c:e4:f7:17:77:72:c8:36:86:
         61:7a:f8:34:92:d8:7d:87:4c:32:da:7c:2c:5a:3b:09:d1:72:
         31:6e:c9:34:a6:72:d6:4a:b0:79:68:5e:34:02:ac:cc:b3:03:
         3b:71:eb:16:b6:b7:6b:fa:71:28:03:85:ad:92:f3:72:40:7a:
         cb:db:38:54:6a:0a:46:33:f1:9c:46:12:45:c6:a2:77:ff:11:
         d6:3a:eb:63:a2:65:1a:e0:8c:30:d5:38:77:58:76:d2:a8:d4:
         25:b0:b8:25:77:5c:41:d1:02:89:b3:fc:2a:e1:b4:e5:74:8f:
         b4:62:a9:fe:2a:c4:28:a4:43:39:4c:08:07:a3:53:6a:2c:15:
         81:03:6c:95:4f:ab:30:94:b4:91:9c:6b:f4:18:e0:e5:fa:82:
         e8:7c:be:5f:bc:ba:b5:eb:fe:3c:73:ad:a2:70:4c:c0:b0:75:
         be:8f:9e:89:d7:73:87:ea:7e:f6:46:b4:f4:fd:5d:39:d0:32:
         3c:c0:86:e9:6c:c7:bb:43:1b:59:08:b3:c4:6d:15:7d:1c:3c:
         d8:74:56:ec:89:f4:d9:37:84:26:87:21:75:30:2d:3c:a8:97:
         f0:9b:d1:dd:fd:51:bb:c6:ed:50:29:90:18:de:3b:32:8f:db:
         8f:1c:60:f8:fa:a7:32:a6:08:a4:9c:e2:db:14:b3:c8:1d:f4:
         18:b0:db:b1:99:08:08:82:09:f6:a9:69:d9:57:93:cb:30:d1:
         78:77:50:83:9a:06:cb:db:ce:80:cc:05:c4:ce:49:0d:79:b1:
         91:74:3e:17:8b:ad:49:26:1b:c4:69:b0:dc:31:9f:cd:16:31:
         d1:84:9d:b4:de:b4:dc:51:ed:4b:6c:55:0b:e8:14:32:39:de:
         82:0b:43:e7:91:fc:21:7c:bc:fe:76:8a:00:51:de:9f:c3:f6:
         0d:57:aa:90:0c:fe:a8:bb:2f:0b:20:f7:65:62:bb:65:14:62:
         a4:f2:21:63:1c:65:38:1c:46:17:6e:db:00:48:d2:c2:eb:fb:
         26:8b:e8:14:87:97:9b:37:2e:48:24:e2:1f:81:45:93:d1:9c:
         65:ac:1b:13:85:aa:7b:aa:2b:ba:31:9c:77:ab:d8:31:43:bf:
         29:36:83:23:2d:08:70:2d:d5:85:eb:dc:84:d2:75:0c:89:dc:
         f4:81:db:13:98:a9:d7:4b:89:19:3e:7c:14:d8:84:29:aa:b7:
         af:f8:19:e6:d3:92:35:2f:81:7e:23:ac:26:f8:95:6d:a8:53:
         3c:26:47:e3:75:34:42:59
-----BEGIN CERTIFICATE-----
MIIHDzCCBPegAwIBAgIBATANBgkqhkiG9w0BAQsFADCBkDELMAkGA1UEBhMCREUx
CzAJBgNVBAgTAkJXMQwwCgYDVQQHEwNVbG0xEDAOBgNVBAoTB2VuZm9yZ2UxDjAM
BgNVBAsTBWNsb3VkMRMwEQYDVQQDEwplbmZvcmdlIENBMQ8wDQYDVQQpEwZzZXJ2
ZXIxHjAcBgkqhkiG9w0BCQEWD2luZm9AZW5mb3JnZS5kZTAeFw0xOTExMDcxNDU5
NTZaFw0yOTExMDQxNDU5NTZaMIGMMQswCQYDVQQGEwJERTELMAkGA1UECBMCQlcx
DDAKBgNVBAcTA1VsbTEQMA4GA1UEChMHZW5mb3JnZTEOMAwGA1UECxMFY2xvdWQx
DzANBgNVBAMTBnNlcnZlcjEPMA0GA1UEKRMGc2VydmVyMR4wHAYJKoZIhvcNAQkB
Fg9pbmZvQGVuZm9yZ2UuZGUwggIiMA0GCSqGSIb3DQEBAQUAA4ICDwAwggIKAoIC
AQDf8tgjJpVGFHMlnQ5A9Ilz8g+zG9GuKTZjOeYLdpF5622+4ofZ5W8ScdelD+QA
ugF4kP2YOLy0l1ktOGXASWs5yeQq2DP1YIrGOENFqd6EdIyVtXpunMHFwREVXzNg
RxPSBshQx48FxR4xVOXVjA/eWUxK8Yj277u4QQB4Me0vW9VLRm3zlDsIIkv5Buw1
6Dr4KKCgdjtFuEPiCq8JfVgU+BARXrliH47GCSvhhkXIT2Y2KWTVeX2ZJ1rHHXWL
05tWnuJLVlJ4BSQ+7ox+gxyJ8yksHsgBnTklhoqZY1gwTcUiaXDpcsbWbRx4wnAW
xtALMNtB6Z8FFVjkQfaArEYnurtQWifnB+P5T6y+m9dn6XS5SAREaElUCihPLVSP
eDSwVb/dtTFYlVtRW+0MwgzWjk8v2odrNpFRyoWT8h9Pladi+xtKuKxkCF+EmDtc
xFwyggkeU2OEEb97G6H50btGI4Xi5udAmwipL6vJuotb/rAWH2fHI9K0dJR9LqHB
lWR7uKRSUv3LLiAL4G8dTFkCwZnrsLM1CEAdvSDJDVAf9TBx6wtra+dQFra108Ls
fm+xgOFWK9QmbgpPk/pGALQXhC+pHUUxdF6tu+r40LN4eNmk1iJfQ6z9MEXgi60l
GdfrqCrLbZr2Jx7hgTSApkeew0Sjyp3hqcTNiiEUGCIk9wIDAQABo4IBdDCCAXAw
CQYDVR0TBAIwADARBglghkgBhvhCAQEEBAMCBkAwNAYJYIZIAYb4QgENBCcWJUVh
c3ktUlNBIEdlbmVyYXRlZCBTZXJ2ZXIgQ2VydGlmaWNhdGUwHQYDVR0OBBYEFFhL
Iryv55zmmRly4hXYP9OY1LIqMIHFBgNVHSMEgb0wgbqAFKYTZX/rYin7OgemHHGN
E/ZgOe+goYGWpIGTMIGQMQswCQYDVQQGEwJERTELMAkGA1UECBMCQlcxDDAKBgNV
BAcTA1VsbTEQMA4GA1UEChMHZW5mb3JnZTEOMAwGA1UECxMFY2xvdWQxEzARBgNV
BAMTCmVuZm9yZ2UgQ0ExDzANBgNVBCkTBnNlcnZlcjEeMBwGCSqGSIb3DQEJARYP
aW5mb0BlbmZvcmdlLmRlggkAtbVwzSnj7VswEwYDVR0lBAwwCgYIKwYBBQUHAwEw
CwYDVR0PBAQDAgWgMBEGA1UdEQQKMAiCBnNlcnZlcjANBgkqhkiG9w0BAQsFAAOC
AgEAewq1jscp0Ia3r8BkTXnhY5DcqSyXVzX7/hCRLOT3F3dyyDaGYXr4NJLYfYdM
Mtp8LFo7CdFyMW7JNKZy1kqweWheNAKszLMDO3HrFra3a/pxKAOFrZLzckB6y9s4
VGoKRjPxnEYSRcaid/8R1jrrY6JlGuCMMNU4d1h20qjUJbC4JXdcQdECibP8KuG0
5XSPtGKp/irEKKRDOUwIB6NTaiwVgQNslU+rMJS0kZxr9Bjg5fqC6Hy+X7y6tev+
PHOtonBMwLB1vo+eiddzh+p+9ka09P1dOdAyPMCG6WzHu0MbWQizxG0VfRw82HRW
7In02TeEJochdTAtPKiX8JvR3f1Ru8btUCmQGN47Mo/bjxxg+PqnMqYIpJzi2xSz
yB30GLDbsZkICIIJ9qlp2VeTyzDReHdQg5oGy9vOgMwFxM5JDXmxkXQ+F4utSSYb
xGmw3DGfzRYx0YSdtN603FHtS2xVC+gUMjneggtD55H8IXy8/naKAFHen8P2DVeq
kAz+qLsvCyD3ZWK7ZRRipPIhYxxlOBxGF27bAEjSwuv7JovoFIeXmzcuSCTiH4FF
k9GcZawbE4Wqe6orujGcd6vYMUO/KTaDIy0IcC3VhevchNJ1DInc9IHbE5ip10uJ
GT58FNiEKaq3r/gZ5tOSNS+BfiOsJviVbahTPCZH43U0Qlk=
-----END CERTIFICATE-----
