Certificate:
    Data:
        Version: 3 (0x2)
        Serial Number: 2 (0x2)
    Signature Algorithm: sha256WithRSAEncryption
        Issuer: C=DE, ST=BW, L=Ulm, O=enforge, OU=cloud, CN=enforge CA/name=server/emailAddress=info@enforge.de
        Validity
            Not Before: Nov  7 14:59:56 2019 GMT
            Not After : Nov  4 14:59:56 2029 GMT
        Subject: C=DE, ST=BW, L=Ulm, O=enforge, OU=cloud, CN=client1/name=server/emailAddress=info@enforge.de
        Subject Public Key Info:
            Public Key Algorithm: rsaEncryption
                Public-Key: (4096 bit)
                Modulus:
                    00:c2:04:bd:7a:c8:c4:ac:c1:2e:4d:74:83:75:11:
                    c5:ae:7b:5c:e0:85:24:a3:f2:17:13:6a:20:a1:e3:
                    6a:a7:cf:74:9d:f1:11:54:7f:d0:10:d9:6c:aa:b9:
                    33:d8:65:e1:22:94:28:94:f6:32:e2:53:fa:cd:86:
                    0c:fb:f8:e8:47:1e:01:43:da:59:d5:d8:d8:56:2a:
                    7b:df:5c:0c:54:d5:f0:97:4c:29:ef:53:74:10:9d:
                    ec:05:03:3f:c4:04:a6:f4:ea:42:67:02:dc:02:bd:
                    06:8e:a3:ba:23:40:49:6c:d2:ca:b7:8d:e9:db:42:
                    9d:07:14:64:64:59:14:07:79:f2:4a:7b:bc:b5:52:
                    7c:1c:29:ce:22:59:99:d2:b2:5b:e0:87:b8:da:1f:
                    ce:7b:3e:c0:0e:b8:d4:3c:b6:0b:40:f7:5a:e1:8a:
                    78:0a:a4:05:64:5f:0d:75:74:57:47:2c:6a:4f:6d:
                    11:35:01:f6:4e:a6:15:de:6d:bf:49:cb:07:ab:32:
                    25:4d:2a:72:ce:a6:f2:78:95:64:e7:39:e9:9d:06:
                    50:47:ca:40:78:77:8d:9e:79:8c:d7:ac:63:4b:af:
                    05:6f:65:b6:00:ab:37:e8:f2:25:6f:44:85:b5:52:
                    67:a2:13:86:bd:0e:42:b5:44:54:ff:65:35:9e:98:
                    b4:c5:83:46:5a:93:1e:2f:21:12:40:63:42:df:3d:
                    45:47:b7:26:5c:14:32:a8:ed:23:d6:16:a2:b9:4c:
                    09:5a:d6:77:7d:9b:16:df:e7:61:4b:2e:c0:62:92:
                    37:09:df:26:a4:2c:b6:91:9a:47:68:6f:d2:30:5f:
                    bb:ee:15:6a:1b:e4:c7:0a:d4:1c:c5:88:e9:bd:54:
                    fd:1e:39:15:5a:41:0f:f5:e9:c1:71:1d:c8:53:6d:
                    d3:74:e1:7e:15:9a:cc:b3:4b:07:69:04:c1:8a:c8:
                    6c:64:f0:b1:d9:0a:ba:b9:94:72:12:3f:2a:56:c9:
                    b5:cc:ef:f9:9a:ab:50:13:e0:4f:f6:e0:17:a0:4e:
                    97:0b:64:7a:dd:bf:c0:b9:c8:70:d6:d5:12:a0:a3:
                    16:78:bc:39:a7:a0:6f:72:4c:09:b4:e2:f3:49:05:
                    63:64:48:3d:17:ed:2f:83:82:41:ce:d7:5c:c9:7b:
                    5f:49:a2:f5:ca:a3:f3:11:73:6b:c4:cf:28:3e:f0:
                    1f:a0:1a:5e:5b:f6:57:73:d3:51:03:98:f4:95:99:
                    8d:98:c8:ad:8e:38:3a:a6:39:1b:41:41:a0:ed:c4:
                    12:8b:33:d6:c8:31:0a:33:15:c6:7b:74:4f:b9:f1:
                    f9:6a:ea:c0:67:ba:fa:3c:d9:27:e9:3a:4c:1a:b7:
                    33:59:1f
                Exponent: 65537 (0x10001)
        X509v3 extensions:
            X509v3 Basic Constraints: 
                CA:FALSE
            Netscape Comment: 
                Easy-RSA Generated Certificate
            X509v3 Subject Key Identifier: 
                05:97:23:CA:4D:EB:97:80:42:A1:F9:F9:B3:D1:7B:66:34:79:3E:20
            X509v3 Authority Key Identifier: 
                keyid:A6:13:65:7F:EB:62:29:FB:3A:07:A6:1C:71:8D:13:F6:60:39:EF:A0
                DirName:/C=DE/ST=BW/L=Ulm/O=enforge/OU=cloud/CN=enforge CA/name=server/emailAddress=info@enforge.de
                serial:B5:B5:70:CD:29:E3:ED:5B

            X509v3 Extended Key Usage: 
                TLS Web Client Authentication
            X509v3 Key Usage: 
                Digital Signature
            X509v3 Subject Alternative Name: 
                DNS:client1
    Signature Algorithm: sha256WithRSAEncryption
         59:79:d0:e6:d5:f9:a9:14:23:4d:91:12:8e:0c:6e:74:d5:3d:
         03:12:90:ed:2d:c0:f4:a5:4c:c5:65:c2:7f:1d:45:8b:44:db:
         af:39:a1:a6:f0:2b:28:4d:f9:0d:b9:3f:40:a5:9a:7e:5d:c4:
         56:0d:c9:b6:3e:65:c4:6a:5e:0f:4d:63:84:12:f7:3e:fe:e5:
         73:ce:1c:8d:ad:71:de:d7:ef:ee:ad:df:c2:93:76:f9:48:e0:
         5e:cd:75:0f:f5:f2:54:39:bb:a3:9f:35:55:71:4b:ca:4c:a0:
         b7:e0:42:f0:61:59:bf:54:9c:27:a0:20:b1:be:9f:9a:ed:68:
         77:48:0f:0b:a8:16:d6:2b:1e:d4:42:5e:09:7e:cf:96:0b:eb:
         db:51:2b:83:e1:27:6f:76:15:3b:8f:52:71:02:79:20:6e:fd:
         ef:45:d9:f8:91:9c:df:c5:a3:7e:3b:34:3b:49:70:8b:49:0e:
         10:e4:a4:f6:eb:97:7f:8e:ce:a8:7e:d9:a0:83:e3:cf:60:f6:
         06:d6:7a:13:14:a8:63:2d:f4:fd:58:4d:70:24:09:93:8a:38:
         84:12:f5:5b:19:67:f9:a3:46:f4:76:bc:95:7e:4c:b5:ca:5b:
         15:f8:c1:79:1b:a0:10:82:c5:91:76:c2:a1:a3:06:8a:59:fa:
         5c:76:da:36:68:c8:17:da:12:2d:75:f1:e6:c0:b0:de:6b:26:
         b7:80:7e:c6:71:8d:1b:75:58:9d:17:2d:ad:e5:36:68:22:0a:
         f9:39:ce:14:9c:9d:74:85:f2:c6:83:60:a7:92:b4:89:1c:01:
         26:29:7c:8b:2d:7f:09:b7:37:45:59:e8:8b:2f:db:8f:b3:e7:
         86:59:c1:01:88:2e:4c:b1:43:a8:bb:1b:ae:26:9b:55:63:29:
         f7:46:1f:1a:33:bd:9f:e3:19:86:f3:9e:87:50:b5:87:1f:3a:
         36:60:b0:e2:6e:cd:8f:72:ea:fb:a3:58:fc:b8:ed:68:1f:a1:
         a4:b9:06:ec:2d:55:91:f0:e1:74:15:55:01:1e:8f:d4:bb:80:
         2b:bc:74:4b:46:29:ff:27:32:b7:2b:f0:d8:03:91:85:8c:d7:
         1b:49:42:7f:79:26:d8:8f:b6:0b:e4:11:c1:69:a0:9d:18:df:
         ec:4f:7c:d0:aa:42:54:44:ae:03:f1:25:0a:b0:c9:0e:5c:ad:
         28:ef:0d:35:6f:7b:4a:9f:10:87:ac:db:48:a0:aa:01:07:0f:
         fd:07:fd:0f:42:d0:af:00:87:f2:76:ee:d6:cc:28:ef:f7:83:
         e2:f1:ad:e7:af:ee:3a:35:53:2e:ae:fa:8f:9b:dd:8d:7e:aa:
         f6:fc:e2:28:e5:3e:ca:37
-----BEGIN CERTIFICATE-----
MIIG9zCCBN+gAwIBAgIBAjANBgkqhkiG9w0BAQsFADCBkDELMAkGA1UEBhMCREUx
CzAJBgNVBAgTAkJXMQwwCgYDVQQHEwNVbG0xEDAOBgNVBAoTB2VuZm9yZ2UxDjAM
BgNVBAsTBWNsb3VkMRMwEQYDVQQDEwplbmZvcmdlIENBMQ8wDQYDVQQpEwZzZXJ2
ZXIxHjAcBgkqhkiG9w0BCQEWD2luZm9AZW5mb3JnZS5kZTAeFw0xOTExMDcxNDU5
NTZaFw0yOTExMDQxNDU5NTZaMIGNMQswCQYDVQQGEwJERTELMAkGA1UECBMCQlcx
DDAKBgNVBAcTA1VsbTEQMA4GA1UEChMHZW5mb3JnZTEOMAwGA1UECxMFY2xvdWQx
EDAOBgNVBAMTB2NsaWVudDExDzANBgNVBCkTBnNlcnZlcjEeMBwGCSqGSIb3DQEJ
ARYPaW5mb0BlbmZvcmdlLmRlMIICIjANBgkqhkiG9w0BAQEFAAOCAg8AMIICCgKC
AgEAwgS9esjErMEuTXSDdRHFrntc4IUko/IXE2ogoeNqp890nfERVH/QENlsqrkz
2GXhIpQolPYy4lP6zYYM+/joRx4BQ9pZ1djYVip731wMVNXwl0wp71N0EJ3sBQM/
xASm9OpCZwLcAr0GjqO6I0BJbNLKt43p20KdBxRkZFkUB3nySnu8tVJ8HCnOIlmZ
0rJb4Ie42h/Oez7ADrjUPLYLQPda4Yp4CqQFZF8NdXRXRyxqT20RNQH2TqYV3m2/
ScsHqzIlTSpyzqbyeJVk5znpnQZQR8pAeHeNnnmM16xjS68Fb2W2AKs36PIlb0SF
tVJnohOGvQ5CtURU/2U1npi0xYNGWpMeLyESQGNC3z1FR7cmXBQyqO0j1haiuUwJ
WtZ3fZsW3+dhSy7AYpI3Cd8mpCy2kZpHaG/SMF+77hVqG+THCtQcxYjpvVT9HjkV
WkEP9enBcR3IU23TdOF+FZrMs0sHaQTBishsZPCx2Qq6uZRyEj8qVsm1zO/5mqtQ
E+BP9uAXoE6XC2R63b/Auchw1tUSoKMWeLw5p6BvckwJtOLzSQVjZEg9F+0vg4JB
ztdcyXtfSaL1yqPzEXNrxM8oPvAfoBpeW/ZXc9NRA5j0lZmNmMitjjg6pjkbQUGg
7cQSizPWyDEKMxXGe3RPufH5aurAZ7r6PNkn6TpMGrczWR8CAwEAAaOCAVswggFX
MAkGA1UdEwQCMAAwLQYJYIZIAYb4QgENBCAWHkVhc3ktUlNBIEdlbmVyYXRlZCBD
ZXJ0aWZpY2F0ZTAdBgNVHQ4EFgQUBZcjyk3rl4BCofn5s9F7ZjR5PiAwgcUGA1Ud
IwSBvTCBuoAUphNlf+tiKfs6B6YccY0T9mA576ChgZakgZMwgZAxCzAJBgNVBAYT
AkRFMQswCQYDVQQIEwJCVzEMMAoGA1UEBxMDVWxtMRAwDgYDVQQKEwdlbmZvcmdl
MQ4wDAYDVQQLEwVjbG91ZDETMBEGA1UEAxMKZW5mb3JnZSBDQTEPMA0GA1UEKRMG
c2VydmVyMR4wHAYJKoZIhvcNAQkBFg9pbmZvQGVuZm9yZ2UuZGWCCQC1tXDNKePt
WzATBgNVHSUEDDAKBggrBgEFBQcDAjALBgNVHQ8EBAMCB4AwEgYDVR0RBAswCYIH
Y2xpZW50MTANBgkqhkiG9w0BAQsFAAOCAgEAWXnQ5tX5qRQjTZESjgxudNU9AxKQ
7S3A9KVMxWXCfx1Fi0TbrzmhpvArKE35Dbk/QKWafl3EVg3Jtj5lxGpeD01jhBL3
Pv7lc84cja1x3tfv7q3fwpN2+UjgXs11D/XyVDm7o581VXFLykygt+BC8GFZv1Sc
J6Agsb6fmu1od0gPC6gW1ise1EJeCX7Plgvr21Erg+Enb3YVO49ScQJ5IG7970XZ
+JGc38Wjfjs0O0lwi0kOEOSk9uuXf47OqH7ZoIPjz2D2BtZ6ExSoYy30/VhNcCQJ
k4o4hBL1Wxln+aNG9Ha8lX5MtcpbFfjBeRugEILFkXbCoaMGiln6XHbaNmjIF9oS
LXXx5sCw3msmt4B+xnGNG3VYnRctreU2aCIK+TnOFJyddIXyxoNgp5K0iRwBJil8
iy1/Cbc3RVnoiy/bj7PnhlnBAYguTLFDqLsbriabVWMp90YfGjO9n+MZhvOeh1C1
hx86NmCw4m7Nj3Lq+6NY/LjtaB+hpLkG7C1VkfDhdBVVAR6P1LuAK7x0S0Yp/ycy
tyvw2AORhYzXG0lCf3km2I+2C+QRwWmgnRjf7E980KpCVESuA/ElCrDJDlytKO8N
NW97Sp8Qh6zbSKCqAQcP/Qf9D0LQrwCH8nbu1swo7/eD4vGt56/uOjVTLq76j5vd
jX6q9vziKOU+yjc=
-----END CERTIFICATE-----
