Certificate:
    Data:
        Version: 3 (0x2)
        Serial Number:
            84:cb:94:08:1f:e2:8d:e8:1a:dd:bc:7f:52:9c:b9:45
        Signature Algorithm: sha256WithRSAEncryption
        Issuer: CN=Easy-RSA CA
        Validity
            Not Before: Nov  7 15:25:45 2019 GMT
            Not After : Oct 22 15:25:45 2022 GMT
        Subject: CN=someurl.com
        Subject Public Key Info:
            Public Key Algorithm: rsaEncryption
                RSA Public-Key: (2048 bit)
                Modulus:
                    00:c7:81:e0:0a:4c:37:fb:53:73:bf:f2:79:d6:93:
                    ee:de:c1:14:c1:63:22:f3:87:69:52:dc:41:27:5e:
                    53:5a:f3:be:db:7a:1f:0f:05:c3:e6:8f:99:46:da:
                    1c:7b:1d:57:13:a8:09:d3:ee:06:1a:d3:0f:4b:d8:
                    fc:4a:e3:7a:b9:e6:ba:dc:3a:dd:1b:f5:a2:7c:54:
                    ab:75:1a:56:51:be:94:c0:16:15:04:22:9a:7c:e6:
                    97:be:99:65:73:6b:46:04:3c:4b:7b:d0:e9:15:30:
                    9f:02:53:cb:30:a0:bb:fb:79:0c:32:4c:d6:78:bb:
                    f0:9d:8a:61:e4:ca:48:f9:39:73:88:f2:aa:eb:42:
                    27:ca:e9:30:b1:9a:65:98:b2:06:8a:0f:83:d3:dd:
                    d5:7c:da:5e:4f:5d:83:fd:c7:86:0f:2f:8f:70:67:
                    90:d3:2e:e2:75:1f:90:a7:91:39:d4:a6:5e:34:67:
                    a0:8a:79:71:8a:de:24:6d:68:b3:e8:ea:c7:ce:60:
                    a3:ab:83:02:11:d9:ca:82:b3:cb:1a:f7:e6:d3:68:
                    54:69:0d:bb:b4:78:8a:e1:78:f6:17:e4:5b:67:d1:
                    82:bd:fb:ee:6b:d2:9e:7e:d4:e8:38:ae:db:dc:92:
                    2b:26:6d:6a:38:78:ef:b5:ab:28:1b:7b:c7:aa:f3:
                    6a:f9
                Exponent: 65537 (0x10001)
        X509v3 extensions:
            X509v3 Basic Constraints: 
                CA:FALSE
            X509v3 Subject Key Identifier: 
                6A:F6:DF:DE:29:E8:03:61:84:74:A1:08:C2:0D:C5:D2:F2:EB:D0:32
            X509v3 Authority Key Identifier: 
                keyid:CA:EB:6C:98:8E:5E:AE:63:7D:7A:3D:89:09:A0:63:05:E5:93:2C:17
                DirName:/CN=Easy-RSA CA
                serial:1B:D3:5E:EE:BB:11:57:74:20:62:53:A0:75:1A:91:CA:E2:EF:A7:9F

            X509v3 Extended Key Usage: 
                TLS Web Server Authentication
            X509v3 Key Usage: 
                Digital Signature, Key Encipherment
            X509v3 Subject Alternative Name: 
                DNS:someurl.com
    Signature Algorithm: sha256WithRSAEncryption
         3f:8f:6c:81:73:2c:41:0e:01:b9:1d:b8:29:97:1e:ca:1c:18:
         44:92:7b:47:d5:6b:fe:9a:85:d8:2c:3f:e4:e6:90:a4:6c:3c:
         7c:28:23:30:de:d5:e2:87:cf:fe:55:c1:d3:87:b0:f9:84:b7:
         d9:36:e3:6b:2c:4c:92:d4:c5:ca:db:d4:61:8a:44:fd:48:af:
         e9:4d:97:6d:11:1d:ba:ba:8e:3f:1d:3f:66:77:15:6c:67:11:
         81:c9:d6:f8:e5:ea:5e:8e:e3:78:fa:95:2f:76:2b:70:61:69:
         73:d3:5f:14:64:9b:70:e8:7e:a3:fa:6b:7d:c6:25:34:a8:c8:
         74:8d:e3:fe:3d:99:d4:f7:4d:19:58:f0:93:a1:9d:29:26:17:
         df:72:ee:66:8a:4d:60:10:ba:d1:09:3e:e7:7e:8f:56:0d:43:
         79:c7:9c:f9:89:38:96:65:38:c1:e3:eb:a0:35:ee:76:2c:91:
         fd:2f:cb:9d:75:92:c9:c5:c2:08:a7:53:48:c5:87:0a:a4:04:
         aa:26:fb:cf:75:a7:6e:d3:0e:00:16:04:de:3d:04:9c:7b:11:
         20:5e:5e:73:91:f7:89:b2:85:e9:e3:f6:86:26:8f:8b:81:76:
         43:08:d0:f7:1e:f9:ce:2b:1d:fe:67:57:6f:8d:a6:ad:ea:77:
         44:9c:9b:6e
-----BEGIN CERTIFICATE-----
MIIDcjCCAlqgAwIBAgIRAITLlAgf4o3oGt28f1KcuUUwDQYJKoZIhvcNAQELBQAw
FjEUMBIGA1UEAwwLRWFzeS1SU0EgQ0EwHhcNMTkxMTA3MTUyNTQ1WhcNMjIxMDIy
MTUyNTQ1WjAWMRQwEgYDVQQDDAtzb21ldXJsLmNvbTCCASIwDQYJKoZIhvcNAQEB
BQADggEPADCCAQoCggEBAMeB4ApMN/tTc7/yedaT7t7BFMFjIvOHaVLcQSdeU1rz
vtt6Hw8Fw+aPmUbaHHsdVxOoCdPuBhrTD0vY/Erjernmutw63Rv1onxUq3UaVlG+
lMAWFQQimnzml76ZZXNrRgQ8S3vQ6RUwnwJTyzCgu/t5DDJM1ni78J2KYeTKSPk5
c4jyqutCJ8rpMLGaZZiyBooPg9Pd1XzaXk9dg/3Hhg8vj3BnkNMu4nUfkKeROdSm
XjRnoIp5cYreJG1os+jqx85go6uDAhHZyoKzyxr35tNoVGkNu7R4iuF49hfkW2fR
gr377mvSnn7U6Diu29ySKyZtajh477WrKBt7x6rzavkCAwEAAaOBujCBtzAJBgNV
HRMEAjAAMB0GA1UdDgQWBBRq9t/eKegDYYR0oQjCDcXS8uvQMjBRBgNVHSMESjBI
gBTK62yYjl6uY316PYkJoGMF5ZMsF6EapBgwFjEUMBIGA1UEAwwLRWFzeS1SU0Eg
Q0GCFBvTXu67EVd0IGJToHUakcri76efMBMGA1UdJQQMMAoGCCsGAQUFBwMBMAsG
A1UdDwQEAwIFoDAWBgNVHREEDzANggtzb21ldXJsLmNvbTANBgkqhkiG9w0BAQsF
AAOCAQEAP49sgXMsQQ4BuR24KZceyhwYRJJ7R9Vr/pqF2Cw/5OaQpGw8fCgjMN7V
4ofP/lXB04ew+YS32TbjayxMktTFytvUYYpE/Uiv6U2XbREdurqOPx0/ZncVbGcR
gcnW+OXqXo7jePqVL3YrcGFpc9NfFGSbcOh+o/prfcYlNKjIdI3j/j2Z1PdNGVjw
k6GdKSYX33LuZopNYBC60Qk+536PVg1Decec+Yk4lmU4weProDXudiyR/S/LnXWS
ycXCCKdTSMWHCqQEqib7z3WnbtMOABYE3j0EnHsRIF5ec5H3ibKF6eP2hiaPi4F2
QwjQ9x75zisd/mdXb42mrep3RJybbg==
-----END CERTIFICATE-----
